target datalayout = "e-m:e-p270:32:32-p271:32:32-p272:64:64-i64:64-i128:128-f80:128-n8:16:32:64-S128"
target triple = "x86_64-unknown-linux-gnu"

%"struct.node::AssertionInfo" = type { ptr, ptr, ptr }
%"class.node::MutexBase" = type { %union.pthread_mutex_t }
%union.pthread_mutex_t = type { %struct.__pthread_mutex_s }
%struct.__pthread_mutex_s = type { i32, i32, i32, i32, i32, i16, i16, %struct.__pthread_internal_list }
%struct.__pthread_internal_list = type { ptr, ptr }
%"class.node::ConditionVariableBase" = type { %union.pthread_cond_t }
%union.pthread_cond_t = type { %struct.__pthread_cond_s }
%struct.__pthread_cond_s = type { %union.__atomic_wide_counter, %union.__atomic_wide_counter, [2 x i32], [2 x i32], i32, i32, [2 x i32] }
%union.__atomic_wide_counter = type { i64 }
%"class.node::TaskQueue" = type { %"class.node::MutexBase", %"class.node::ConditionVariableBase", %"class.node::ConditionVariableBase", i32, i8, %"class.std::queue" }
%"class.std::queue" = type { %"class.std::deque" }
%"class.std::deque" = type { %"class.std::_Deque_base" }
%"class.std::_Deque_base" = type { %"struct.std::_Deque_base<std::unique_ptr<v8::Task>, std::allocator<std::unique_ptr<v8::Task>>>::_Deque_impl" }
%"struct.std::_Deque_base<std::unique_ptr<v8::Task>, std::allocator<std::unique_ptr<v8::Task>>>::_Deque_impl" = type { %"struct.std::_Deque_base<std::unique_ptr<v8::Task>, std::allocator<std::unique_ptr<v8::Task>>>::_Deque_impl_data" }
%"struct.std::_Deque_base<std::unique_ptr<v8::Task>, std::allocator<std::unique_ptr<v8::Task>>>::_Deque_impl_data" = type { ptr, i64, %"struct.std::_Deque_iterator", %"struct.std::_Deque_iterator" }
%"struct.std::_Deque_iterator" = type { ptr, ptr, ptr, ptr }
%"class.node::PerIsolatePlatformData" = type { %"class.node::IsolatePlatformDelegate", %"class.v8::TaskRunner", %"class.std::enable_shared_from_this", %"class.std::vector.30", %"class.std::shared_ptr", i32, ptr, ptr, ptr, %"class.node::TaskQueue", %"class.node::TaskQueue.35", %"class.std::vector.43" }
%"class.node::IsolatePlatformDelegate" = type { ptr }
%"class.v8::TaskRunner" = type { ptr }
%"class.std::enable_shared_from_this" = type { %"class.std::weak_ptr" }
%"class.std::weak_ptr" = type { %"class.std::__weak_ptr" }
%"class.std::__weak_ptr" = type { ptr, %"class.std::__weak_count" }
%"class.std::__weak_count" = type { ptr }
%"class.std::vector.30" = type { %"struct.std::_Vector_base.31" }
%"struct.std::_Vector_base.31" = type { %"struct.std::_Vector_base<node::PerIsolatePlatformData::ShutdownCallback, std::allocator<node::PerIsolatePlatformData::ShutdownCallback>>::_Vector_impl" }
%"struct.std::_Vector_base<node::PerIsolatePlatformData::ShutdownCallback, std::allocator<node::PerIsolatePlatformData::ShutdownCallback>>::_Vector_impl" = type { %"struct.std::_Vector_base<node::PerIsolatePlatformData::ShutdownCallback, std::allocator<node::PerIsolatePlatformData::ShutdownCallback>>::_Vector_impl_data" }
%"struct.std::_Vector_base<node::PerIsolatePlatformData::ShutdownCallback, std::allocator<node::PerIsolatePlatformData::ShutdownCallback>>::_Vector_impl_data" = type { ptr, ptr, ptr }
%"class.std::shared_ptr" = type { %"class.std::__shared_ptr" }
%"class.std::__shared_ptr" = type { ptr, %"class.std::__shared_count" }
%"class.std::__shared_count" = type { ptr }
%"class.node::TaskQueue.35" = type { %"class.node::MutexBase", %"class.node::ConditionVariableBase", %"class.node::ConditionVariableBase", i32, i8, %"class.std::queue.36" }
%"class.std::queue.36" = type { %"class.std::deque.37" }
%"class.std::deque.37" = type { %"class.std::_Deque_base.38" }
%"class.std::_Deque_base.38" = type { %"struct.std::_Deque_base<std::unique_ptr<node::DelayedTask>, std::allocator<std::unique_ptr<node::DelayedTask>>>::_Deque_impl" }
%"struct.std::_Deque_base<std::unique_ptr<node::DelayedTask>, std::allocator<std::unique_ptr<node::DelayedTask>>>::_Deque_impl" = type { %"struct.std::_Deque_base<std::unique_ptr<node::DelayedTask>, std::allocator<std::unique_ptr<node::DelayedTask>>>::_Deque_impl_data" }
%"struct.std::_Deque_base<std::unique_ptr<node::DelayedTask>, std::allocator<std::unique_ptr<node::DelayedTask>>>::_Deque_impl_data" = type { ptr, i64, %"struct.std::_Deque_iterator.42", %"struct.std::_Deque_iterator.42" }
%"struct.std::_Deque_iterator.42" = type { ptr, ptr, ptr, ptr }
%"class.std::vector.43" = type { %"struct.std::_Vector_base.44" }
%"struct.std::_Vector_base.44" = type { %"struct.std::_Vector_base<std::unique_ptr<node::DelayedTask, void (*)(node::DelayedTask *)>, std::allocator<std::unique_ptr<node::DelayedTask, void (*)(node::DelayedTask *)>>>::_Vector_impl" }
%"struct.std::_Vector_base<std::unique_ptr<node::DelayedTask, void (*)(node::DelayedTask *)>, std::allocator<std::unique_ptr<node::DelayedTask, void (*)(node::DelayedTask *)>>>::_Vector_impl" = type { %"struct.std::_Vector_base<std::unique_ptr<node::DelayedTask, void (*)(node::DelayedTask *)>, std::allocator<std::unique_ptr<node::DelayedTask, void (*)(node::DelayedTask *)>>>::_Vector_impl_data" }
%"struct.std::_Vector_base<std::unique_ptr<node::DelayedTask, void (*)(node::DelayedTask *)>, std::allocator<std::unique_ptr<node::DelayedTask, void (*)(node::DelayedTask *)>>>::_Vector_impl_data" = type { ptr, ptr, ptr }
%"struct.node::PerIsolatePlatformData::ShutdownCallback" = type { ptr, ptr }
%"class.__gnu_cxx::__normal_iterator" = type { ptr }

@_ZZN4node22PerIsolatePlatformData19DecreaseHandleCountEvE4args = internal constant %"struct.node::AssertionInfo" { ptr @.str.12, ptr @.str.13, ptr @.str.14 }, align 8

; Function Attrs: mustprogress nounwind uwtable
define linkonce_odr dso_local noundef nonnull align 8 dereferenceable(8) ptr @_ZNK9__gnu_cxx17__normal_iteratorIPN4node22PerIsolatePlatformData16ShutdownCallbackESt6vectorIS3_SaIS3_EEE4baseEv(ptr noundef nonnull align 8 dereferenceable(8) %this) #4 comdat align 2 {
entry:
  %this.addr = alloca ptr, align 8
  store ptr %this, ptr %this.addr, align 8
  %this1 = load ptr, ptr %this.addr, align 8
  %_M_current = getelementptr inbounds %"class.__gnu_cxx::__normal_iterator", ptr %this1, i32 0, i32 0
  ret ptr %_M_current
}

; Function Attrs: mustprogress nounwind uwtable
define linkonce_odr dso_local void @_ZN9__gnu_cxx17__normal_iteratorIPN4node22PerIsolatePlatformData16ShutdownCallbackESt6vectorIS3_SaIS3_EEEC2ERKS4_(ptr noundef nonnull align 8 dereferenceable(8) %this, ptr noundef nonnull align 8 dereferenceable(8) %__i) unnamed_addr #4 comdat align 2 {
entry:
  %this.addr = alloca ptr, align 8
  %__i.addr = alloca ptr, align 8
  store ptr %this, ptr %this.addr, align 8
  store ptr %__i, ptr %__i.addr, align 8
  %this1 = load ptr, ptr %this.addr, align 8
  %_M_current = getelementptr inbounds %"class.__gnu_cxx::__normal_iterator", ptr %this1, i32 0, i32 0
  %0 = load ptr, ptr %__i.addr, align 8
  %1 = load ptr, ptr %0, align 8
  store ptr %1, ptr %_M_current, align 8
  ret void
}

; Function Attrs: mustprogress nounwind uwtable
define linkonce_odr dso_local noundef nonnull align 8 dereferenceable(8) ptr @_ZN9__gnu_cxx17__normal_iteratorIPN4node22PerIsolatePlatformData16ShutdownCallbackESt6vectorIS3_SaIS3_EEEppEv(ptr noundef nonnull align 8 dereferenceable(8) %this) #4 comdat align 2 {
entry:
  %this.addr = alloca ptr, align 8
  store ptr %this, ptr %this.addr, align 8
  %this1 = load ptr, ptr %this.addr, align 8
  %_M_current = getelementptr inbounds %"class.__gnu_cxx::__normal_iterator", ptr %this1, i32 0, i32 0
  %0 = load ptr, ptr %_M_current, align 8
  %incdec.ptr = getelementptr inbounds %"struct.node::PerIsolatePlatformData::ShutdownCallback", ptr %0, i32 1
  store ptr %incdec.ptr, ptr %_M_current, align 8
  ret ptr %this1
}

; Function Attrs: mustprogress nounwind uwtable
define linkonce_odr dso_local noundef nonnull align 8 dereferenceable(16) ptr @_ZNK9__gnu_cxx17__normal_iteratorIPN4node22PerIsolatePlatformData16ShutdownCallbackESt6vectorIS3_SaIS3_EEEdeEv(ptr noundef nonnull align 8 dereferenceable(8) %this) #4 comdat align 2 {
entry:
  %this.addr = alloca ptr, align 8
  store ptr %this, ptr %this.addr, align 8
  %this1 = load ptr, ptr %this.addr, align 8
  %_M_current = getelementptr inbounds %"class.__gnu_cxx::__normal_iterator", ptr %this1, i32 0, i32 0
  %0 = load ptr, ptr %_M_current, align 8
  ret ptr %0
}

; Function Attrs: mustprogress nounwind uwtable
define linkonce_odr dso_local noundef zeroext i1 @_ZN9__gnu_cxxneIPN4node22PerIsolatePlatformData16ShutdownCallbackESt6vectorIS3_SaIS3_EEEEbRKNS_17__normal_iteratorIT_T0_EESD_(ptr noundef nonnull align 8 dereferenceable(8) %__lhs, ptr noundef nonnull align 8 dereferenceable(8) %__rhs) #4 comdat {
entry:
  %__lhs.addr = alloca ptr, align 8
  %__rhs.addr = alloca ptr, align 8
  store ptr %__lhs, ptr %__lhs.addr, align 8
  store ptr %__rhs, ptr %__rhs.addr, align 8
  %0 = load ptr, ptr %__lhs.addr, align 8
  %call = call noundef nonnull align 8 dereferenceable(8) ptr @_ZNK9__gnu_cxx17__normal_iteratorIPN4node22PerIsolatePlatformData16ShutdownCallbackESt6vectorIS3_SaIS3_EEE4baseEv(ptr noundef nonnull align 8 dereferenceable(8) %0) #3
  %1 = load ptr, ptr %call, align 8
  %2 = load ptr, ptr %__rhs.addr, align 8
  %call1 = call noundef nonnull align 8 dereferenceable(8) ptr @_ZNK9__gnu_cxx17__normal_iteratorIPN4node22PerIsolatePlatformData16ShutdownCallbackESt6vectorIS3_SaIS3_EEE4baseEv(ptr noundef nonnull align 8 dereferenceable(8) %2) #3
  %3 = load ptr, ptr %call1, align 8
  %cmp = icmp ne ptr %1, %3
  ret i1 %cmp
}

; Function Attrs: mustprogress nounwind uwtable
define linkonce_odr dso_local ptr @_ZNSt6vectorIN4node22PerIsolatePlatformData16ShutdownCallbackESaIS2_EE3endEv(ptr noundef nonnull align 8 dereferenceable(24) %this) #4 comdat align 2 {
entry:
  %retval = alloca %"class.__gnu_cxx::__normal_iterator", align 8
  %this.addr = alloca ptr, align 8
  store ptr %this, ptr %this.addr, align 8
  %this1 = load ptr, ptr %this.addr, align 8
  %_M_impl = getelementptr inbounds %"struct.std::_Vector_base.31", ptr %this1, i32 0, i32 0
  %_M_finish = getelementptr inbounds %"struct.std::_Vector_base<node::PerIsolatePlatformData::ShutdownCallback, std::allocator<node::PerIsolatePlatformData::ShutdownCallback>>::_Vector_impl_data", ptr %_M_impl, i32 0, i32 1
  call void @_ZN9__gnu_cxx17__normal_iteratorIPN4node22PerIsolatePlatformData16ShutdownCallbackESt6vectorIS3_SaIS3_EEEC2ERKS4_(ptr noundef nonnull align 8 dereferenceable(8) %retval, ptr noundef nonnull align 8 dereferenceable(8) %_M_finish) #3
  %coerce.dive = getelementptr inbounds %"class.__gnu_cxx::__normal_iterator", ptr %retval, i32 0, i32 0
  %0 = load ptr, ptr %coerce.dive, align 8
  ret ptr %0
}

; Function Attrs: mustprogress nounwind uwtable
define linkonce_odr dso_local ptr @_ZNSt6vectorIN4node22PerIsolatePlatformData16ShutdownCallbackESaIS2_EE5beginEv(ptr noundef nonnull align 8 dereferenceable(24) %this) #4 comdat align 2 {
entry:
  %retval = alloca %"class.__gnu_cxx::__normal_iterator", align 8
  %this.addr = alloca ptr, align 8
  store ptr %this, ptr %this.addr, align 8
  %this1 = load ptr, ptr %this.addr, align 8
  %_M_impl = getelementptr inbounds %"struct.std::_Vector_base.31", ptr %this1, i32 0, i32 0
  %_M_start = getelementptr inbounds %"struct.std::_Vector_base<node::PerIsolatePlatformData::ShutdownCallback, std::allocator<node::PerIsolatePlatformData::ShutdownCallback>>::_Vector_impl_data", ptr %_M_impl, i32 0, i32 0
  call void @_ZN9__gnu_cxx17__normal_iteratorIPN4node22PerIsolatePlatformData16ShutdownCallbackESt6vectorIS3_SaIS3_EEEC2ERKS4_(ptr noundef nonnull align 8 dereferenceable(8) %retval, ptr noundef nonnull align 8 dereferenceable(8) %_M_start) #3
  %coerce.dive = getelementptr inbounds %"class.__gnu_cxx::__normal_iterator", ptr %retval, i32 0, i32 0
  %0 = load ptr, ptr %coerce.dive, align 8
  ret ptr %0
}

; Function Attrs: mustprogress nounwind uwtable
define dso_local void @_ZN4node22PerIsolatePlatformData19DecreaseHandleCountEv(ptr noundef nonnull align 8 dereferenceable(576) %this) #4 align 2 {
entry:
  %this.addr = alloca ptr, align 8
  %__range2 = alloca ptr, align 8
  %__begin2 = alloca %"class.__gnu_cxx::__normal_iterator", align 8
  %__end2 = alloca %"class.__gnu_cxx::__normal_iterator", align 8
  %callback = alloca ptr, align 8
  store ptr %this, ptr %this.addr, align 8
  %this1 = load ptr, ptr %this.addr, align 8
  br label %do.body

do.body:                                          ; preds = %entry
  %uv_handle_count_ = getelementptr inbounds %"class.node::PerIsolatePlatformData", ptr %this1, i32 0, i32 5
  %0 = load i32, ptr %uv_handle_count_, align 8
  %cmp = icmp uge i32 %0, 1
  %lnot = xor i1 %cmp, true
  %lnot2 = xor i1 %lnot, true
  %lnot3 = xor i1 %lnot2, true
  br i1 %lnot3, label %if.then, label %if.end

if.then:                                          ; preds = %do.body
  br label %do.body4

do.body4:                                         ; preds = %if.then
  call void @_ZN4node6AssertERKNS_13AssertionInfoE(ptr noundef nonnull align 8 dereferenceable(24) @_ZZN4node22PerIsolatePlatformData19DecreaseHandleCountEvE4args)
  call void @abort() #15
  unreachable

do.end:                                           ; No predecessors!
  br label %if.end

if.end:                                           ; preds = %do.end, %do.body
  br label %do.end5

do.end5:                                          ; preds = %if.end
  %uv_handle_count_6 = getelementptr inbounds %"class.node::PerIsolatePlatformData", ptr %this1, i32 0, i32 5
  %1 = load i32, ptr %uv_handle_count_6, align 8
  %dec = add i32 %1, -1
  store i32 %dec, ptr %uv_handle_count_6, align 8
  %cmp7 = icmp eq i32 %dec, 0
  br i1 %cmp7, label %if.then8, label %if.end14

if.then8:                                         ; preds = %do.end5
  %shutdown_callbacks_ = getelementptr inbounds %"class.node::PerIsolatePlatformData", ptr %this1, i32 0, i32 3
  store ptr %shutdown_callbacks_, ptr %__range2, align 8
  %2 = load ptr, ptr %__range2, align 8
  %call = call ptr @_ZNSt6vectorIN4node22PerIsolatePlatformData16ShutdownCallbackESaIS2_EE5beginEv(ptr noundef nonnull align 8 dereferenceable(24) %2) #3
  %coerce.dive = getelementptr inbounds %"class.__gnu_cxx::__normal_iterator", ptr %__begin2, i32 0, i32 0
  store ptr %call, ptr %coerce.dive, align 8
  %3 = load ptr, ptr %__range2, align 8
  %call9 = call ptr @_ZNSt6vectorIN4node22PerIsolatePlatformData16ShutdownCallbackESaIS2_EE3endEv(ptr noundef nonnull align 8 dereferenceable(24) %3) #3
  %coerce.dive10 = getelementptr inbounds %"class.__gnu_cxx::__normal_iterator", ptr %__end2, i32 0, i32 0
  store ptr %call9, ptr %coerce.dive10, align 8
  br label %for.cond

for.cond:                                         ; preds = %for.inc, %if.then8
  %call11 = call noundef zeroext i1 @_ZN9__gnu_cxxneIPN4node22PerIsolatePlatformData16ShutdownCallbackESt6vectorIS3_SaIS3_EEEEbRKNS_17__normal_iteratorIT_T0_EESD_(ptr noundef nonnull align 8 dereferenceable(8) %__begin2, ptr noundef nonnull align 8 dereferenceable(8) %__end2) #3
  br i1 %call11, label %for.body, label %for.end

for.body:                                         ; preds = %for.cond
  %call12 = call noundef nonnull align 8 dereferenceable(16) ptr @_ZNK9__gnu_cxx17__normal_iteratorIPN4node22PerIsolatePlatformData16ShutdownCallbackESt6vectorIS3_SaIS3_EEEdeEv(ptr noundef nonnull align 8 dereferenceable(8) %__begin2) #3
  store ptr %call12, ptr %callback, align 8
  %4 = load ptr, ptr %callback, align 8
  %cb = getelementptr inbounds %"struct.node::PerIsolatePlatformData::ShutdownCallback", ptr %4, i32 0, i32 0
  %5 = load ptr, ptr %cb, align 8
  %6 = load ptr, ptr %callback, align 8
  %data = getelementptr inbounds %"struct.node::PerIsolatePlatformData::ShutdownCallback", ptr %6, i32 0, i32 1
  %7 = load ptr, ptr %data, align 8
  call void %5(ptr noundef %7)
  br label %for.inc

for.inc:                                          ; preds = %for.body
  %call13 = call noundef nonnull align 8 dereferenceable(8) ptr @_ZN9__gnu_cxx17__normal_iteratorIPN4node22PerIsolatePlatformData16ShutdownCallbackESt6vectorIS3_SaIS3_EEEppEv(ptr noundef nonnull align 8 dereferenceable(8) %__begin2) #3
  br label %for.cond

for.end:                                          ; preds = %for.cond
  br label %if.end14

if.end14:                                         ; preds = %for.end, %do.end5
  ret void
}