; Function Attrs: mustprogress nounwind uwtable
define dso_local void @_ZN4node22PerIsolatePlatformData19DecreaseHandleCountEv(ptr nocapture noundef nonnull align 8 dereferenceable(576) %this) local_unnamed_addr #3 align 2 {
entry:
  %uv_handle_count_ = getelementptr inbounds i8, ptr %this, i64 72
  %0 = load i32, ptr %uv_handle_count_, align 8
  %cmp.not = icmp eq i32 %0, 0
  br i1 %cmp.not, label %do.body4, label %do.end5

do.body4:                                         ; preds = %entry
  tail call void @_ZN4node6AssertERKNS_13AssertionInfoE(ptr noundef nonnull align 8 dereferenceable(24) @_ZZN4node22PerIsolatePlatformData19DecreaseHandleCountEvE4args) #23
  tail call void @abort() #24
  unreachable

do.end5:                                          ; preds = %entry
  %dec = add i32 %0, -1
  store i32 %dec, ptr %uv_handle_count_, align 8
  %cmp7 = icmp eq i32 %dec, 0
  br i1 %cmp7, label %if.then8, label %if.end14

if.then8:                                         ; preds = %do.end5
  %shutdown_callbacks_ = getelementptr inbounds i8, ptr %this, i64 32
  %1 = load ptr, ptr %shutdown_callbacks_, align 8
  %_M_finish.i = getelementptr inbounds i8, ptr %this, i64 40
  %2 = load ptr, ptr %_M_finish.i, align 8
  %cmp.i.not5 = icmp eq ptr %1, %2
  br i1 %cmp.i.not5, label %if.end14, label %for.body

for.body:                                         ; preds = %if.then8, %for.body
  %__begin2.sroa.0.06 = phi ptr [ %incdec.ptr.i, %for.body ], [ %1, %if.then8 ]
  %3 = load ptr, ptr %__begin2.sroa.0.06, align 8
  %data = getelementptr inbounds i8, ptr %__begin2.sroa.0.06, i64 8
  %4 = load ptr, ptr %data, align 8
  tail call void %3(ptr noundef %4) #23
  %incdec.ptr.i = getelementptr inbounds i8, ptr %__begin2.sroa.0.06, i64 16
  %cmp.i.not = icmp eq ptr %incdec.ptr.i, %2
  br i1 %cmp.i.not, label %if.end14, label %for.body

if.end14:                                         ; preds = %for.body, %if.then8, %do.end5
  ret void
}